target datalayout = "e-m:e-p270:32:32-p271:32:32-p272:64:64-i64:64-i128:128-f80:128-n8:16:32:64-S128"
target triple = "x86_64-pc-linux-gnu"

%class.rational = type { %class.mpq }
%class.mpq = type { %class.mpz, %class.mpz }
%class.mpz = type { i32, i8, ptr }
%"class.lp::lar_solver" = type { %"class.lp::column_namer", %class.trail_stack, %"struct.lp::lp_settings", i32, %class.stacked_value, i32, ptr, %"class.lp::lar_core_solver", ptr, i8, %"class.lp::var_register", %class.svector.44, %"class.lp::constraint_set", %class.indexed_uint_set, %class.indexed_uint_set, %class.svector, %class.scoped_dependency_manager, %class.svector, %class.indexed_uint_set, %class.indexed_uint_set, %class.svector, %class.vector.50, %"class.lp::indexed_vector", %"class.std::unordered_map.51", %"class.lp::stacked_vector.26", %class.map, %class.map, %class.indexed_uint_set, i8, %"class.std::unordered_set", %"class.std::unordered_set.85", %class.rational, %"class.std::function", %"class.std::function.104", %"class.std::function", %"class.std::function.107" }
%"class.lp::column_namer" = type { ptr }
%class.trail_stack = type { %class.ptr_vector, %class.svector, %class.region }
%class.ptr_vector = type { %class.vector }
%class.vector = type { ptr }
%class.region = type { ptr, ptr, ptr, ptr, ptr }
%"struct.lp::lp_settings" = type <{ %"class.lp::lp_settings::default_lp_resource_limit", ptr, ptr, ptr, %"struct.lp::statistics", %class.random_gen, i32, i32, i32, i8, [3 x i8], i32, i8, [3 x i8], i32, double, i8, i8, [2 x i8], i32, i32, i8, [3 x i8], i32, i8, [3 x i8], i32, i8, [3 x i8], i32, i32, i32, i32, i32, i8, [3 x i8], i32, i32, i32, i8, i8, i8, i8, i8, i8, [2 x i8], i32, i32, [4 x i8] }>
%"class.lp::lp_settings::default_lp_resource_limit" = type { %"class.lp::lp_resource_limit", ptr, %class.stopwatch }
%"class.lp::lp_resource_limit" = type { ptr }
%class.stopwatch = type <{ %"class.std::chrono::time_point", %"class.std::chrono::duration", i8, [7 x i8] }>
%"class.std::chrono::time_point" = type { %"class.std::chrono::duration" }
%"class.std::chrono::duration" = type { i64 }
%"struct.lp::statistics" = type { i32, i32, i32, i32, i32, i32, i32, i32, i32, i32, i32, i32, i32, i32, i32, i32, i32, i32, i32, i32, i32, i32, i32, i32, i32, i32, i32, i32, i32, i32, i32, i32, i32, i32, i32, i32, i32, i32, i32, i32, i32, i32, i32, %class.statistics }
%class.statistics = type { %class.svector.1, %class.svector.3 }
%class.svector.1 = type { %class.vector.2 }
%class.vector.2 = type { ptr }
%class.svector.3 = type { %class.vector.4 }
%class.vector.4 = type { ptr }
%class.random_gen = type { i32 }
%class.stacked_value = type { i32, %class.vector.5 }
%class.vector.5 = type { ptr }
%"class.lp::lar_core_solver" = type { %class.vector.6, i32, %class.vector.7, %class.vector.8, %class.stacked_value, %class.vector.7, %class.vector.7, %"class.lp::stacked_vector", %"class.lp::stacked_vector.11", %"class.lp::stacked_vector.11", %"class.lp::static_matrix", %"class.lp::stacked_vector.26", %class.vector.28, %class.vector.28, %"class.std::vector.29", %"class.lp::lp_primal_core_solver" }
%class.vector.6 = type { ptr }
%class.vector.8 = type { ptr }
%class.vector.7 = type { ptr }
%"class.lp::stacked_vector" = type { %class.svector, %class.svector, %class.vector.9, %class.vector.10, %class.svector }
%class.vector.9 = type { ptr }
%class.vector.10 = type { ptr }
%"class.lp::stacked_vector.11" = type { %class.svector, %class.svector, %class.vector.12, %class.vector.7, %class.svector }
%class.vector.12 = type { ptr }
%"class.lp::static_matrix" = type { %"class.std::stack", %class.vector.13, %"class.lp::indexed_vector", %"class.std::vector.18", %"class.std::vector.22" }
%"class.std::stack" = type { %"class.std::deque" }
%"class.std::deque" = type { %"class.std::_Deque_base" }
%"class.std::_Deque_base" = type { %"struct.std::_Deque_base<lp::static_matrix<rational, lp::numeric_pair<rational>>::dim, std::allocator<lp::static_matrix<rational, lp::numeric_pair<rational>>::dim>>::_Deque_impl" }
%"struct.std::_Deque_base<lp::static_matrix<rational, lp::numeric_pair<rational>>::dim, std::allocator<lp::static_matrix<rational, lp::numeric_pair<rational>>::dim>>::_Deque_impl" = type { %"struct.std::_Deque_base<lp::static_matrix<rational, lp::numeric_pair<rational>>::dim, std::allocator<lp::static_matrix<rational, lp::numeric_pair<rational>>::dim>>::_Deque_impl_data" }
%"struct.std::_Deque_base<lp::static_matrix<rational, lp::numeric_pair<rational>>::dim, std::allocator<lp::static_matrix<rational, lp::numeric_pair<rational>>::dim>>::_Deque_impl_data" = type { ptr, i64, %"struct.std::_Deque_iterator", %"struct.std::_Deque_iterator" }
%"struct.std::_Deque_iterator" = type { ptr, ptr, ptr, ptr }
%class.vector.13 = type { ptr }
%"class.std::vector.18" = type { %"struct.std::_Vector_base.19" }
%"struct.std::_Vector_base.19" = type { %"struct.std::_Vector_base<std::vector<lp::row_cell<rational>, std_allocator<lp::row_cell<rational>>>, std_allocator<std::vector<lp::row_cell<rational>, std_allocator<lp::row_cell<rational>>>>>::_Vector_impl" }
%"struct.std::_Vector_base<std::vector<lp::row_cell<rational>, std_allocator<lp::row_cell<rational>>>, std_allocator<std::vector<lp::row_cell<rational>, std_allocator<lp::row_cell<rational>>>>>::_Vector_impl" = type { %"struct.std::_Vector_base<std::vector<lp::row_cell<rational>, std_allocator<lp::row_cell<rational>>>, std_allocator<std::vector<lp::row_cell<rational>, std_allocator<lp::row_cell<rational>>>>>::_Vector_impl_data" }
%"struct.std::_Vector_base<std::vector<lp::row_cell<rational>, std_allocator<lp::row_cell<rational>>>, std_allocator<std::vector<lp::row_cell<rational>, std_allocator<lp::row_cell<rational>>>>>::_Vector_impl_data" = type { ptr, ptr, ptr }
%"class.std::vector.22" = type { %"struct.std::_Vector_base.23" }
%"struct.std::_Vector_base.23" = type { %"struct.std::_Vector_base<std::vector<lp::row_cell<lp::empty_struct>, std_allocator<lp::row_cell<lp::empty_struct>>>, std_allocator<std::vector<lp::row_cell<lp::empty_struct>, std_allocator<lp::row_cell<lp::empty_struct>>>>>::_Vector_impl" }
%"struct.std::_Vector_base<std::vector<lp::row_cell<lp::empty_struct>, std_allocator<lp::row_cell<lp::empty_struct>>>, std_allocator<std::vector<lp::row_cell<lp::empty_struct>, std_allocator<lp::row_cell<lp::empty_struct>>>>>::_Vector_impl" = type { %"struct.std::_Vector_base<std::vector<lp::row_cell<lp::empty_struct>, std_allocator<lp::row_cell<lp::empty_struct>>>, std_allocator<std::vector<lp::row_cell<lp::empty_struct>, std_allocator<lp::row_cell<lp::empty_struct>>>>>::_Vector_impl_data" }
%"struct.std::_Vector_base<std::vector<lp::row_cell<lp::empty_struct>, std_allocator<lp::row_cell<lp::empty_struct>>>, std_allocator<std::vector<lp::row_cell<lp::empty_struct>, std_allocator<lp::row_cell<lp::empty_struct>>>>>::_Vector_impl_data" = type { ptr, ptr, ptr }
%class.vector.28 = type { ptr }
%"class.std::vector.29" = type { %"struct.std::_Vector_base.30" }
%"struct.std::_Vector_base.30" = type { %"struct.std::_Vector_base<int, std_allocator<int>>::_Vector_impl" }
%"struct.std::_Vector_base<int, std_allocator<int>>::_Vector_impl" = type { %"struct.std::_Vector_base<int, std_allocator<int>>::_Vector_impl_data" }
%"struct.std::_Vector_base<int, std_allocator<int>>::_Vector_impl_data" = type { ptr, ptr, ptr }
%"class.lp::lp_primal_core_solver" = type { %"class.lp::lp_core_solver_base.base", i32, %class.vector.8, i32, i8, %class.indexed_uint_set, i32, i32, %class.vector.28, %"class.std::__cxx11::list" }
%"class.lp::lp_core_solver_base.base" = type <{ ptr, i32, i32, i32, [4 x i8], %class.heap, %"class.lp::indexed_vector", ptr, ptr, ptr, ptr, ptr, ptr, ptr, ptr, %class.vector.8, ptr, ptr, ptr, i32, [4 x i8], %class.vector.28, i8, [7 x i8], ptr, i8 }>
%class.heap = type { %class.svector.33, %class.svector.33 }
%class.svector.33 = type { %class.vector.34 }
%class.vector.34 = type { ptr }
%"class.std::__cxx11::list" = type { %"class.std::__cxx11::_List_base" }
%"class.std::__cxx11::_List_base" = type { %"struct.std::__cxx11::_List_base<unsigned int, std::allocator<unsigned int>>::_List_impl" }
%"struct.std::__cxx11::_List_base<unsigned int, std::allocator<unsigned int>>::_List_impl" = type { %"struct.std::__detail::_List_node_header" }
%"struct.std::__detail::_List_node_header" = type { %"struct.std::__detail::_List_node_base", i64 }
%"struct.std::__detail::_List_node_base" = type { ptr, ptr }
%"class.lp::var_register" = type { %class.vector.38, %"class.std::unordered_map" }
%class.vector.38 = type { ptr }
%"class.std::unordered_map" = type { %"class.std::_Hashtable" }
%"class.std::_Hashtable" = type { ptr, i64, %"struct.std::__detail::_Hash_node_base", i64, %"struct.std::__detail::_Prime_rehash_policy", ptr }
%"struct.std::__detail::_Hash_node_base" = type { ptr }
%"struct.std::__detail::_Prime_rehash_policy" = type { float, i64 }
%class.svector.44 = type { %class.vector.45 }
%class.vector.45 = type { ptr }
%"class.lp::constraint_set" = type { %class.region, ptr, ptr, %class.vector.46, %class.stacked_value.47, %class.svector, %class.stacked_value.47 }
%class.vector.46 = type { ptr }
%class.stacked_value.47 = type { i32, %class.vector.28 }
%class.scoped_dependency_manager = type { [8 x i8], %"class.scoped_dependency_manager<unsigned int>::config::allocator", %class.dependency_manager }
%"class.scoped_dependency_manager<unsigned int>::config::allocator" = type { %class.region }
%class.dependency_manager = type { ptr, ptr, %class.ptr_vector.48 }
%class.ptr_vector.48 = type { %class.vector.49 }
%class.vector.49 = type { ptr }
%class.svector = type { %class.vector.0 }
%class.vector.0 = type { ptr }
%class.vector.50 = type { ptr }
%"class.lp::indexed_vector" = type { %"class.std::vector", %"class.std::vector.14" }
%"class.std::vector" = type { %"struct.std::_Vector_base" }
%"struct.std::_Vector_base" = type { %"struct.std::_Vector_base<rational, std_allocator<rational>>::_Vector_impl" }
%"struct.std::_Vector_base<rational, std_allocator<rational>>::_Vector_impl" = type { %"struct.std::_Vector_base<rational, std_allocator<rational>>::_Vector_impl_data" }
%"struct.std::_Vector_base<rational, std_allocator<rational>>::_Vector_impl_data" = type { ptr, ptr, ptr }
%"class.std::vector.14" = type { %"struct.std::_Vector_base.15" }
%"struct.std::_Vector_base.15" = type { %"struct.std::_Vector_base<unsigned int, std_allocator<unsigned int>>::_Vector_impl" }
%"struct.std::_Vector_base<unsigned int, std_allocator<unsigned int>>::_Vector_impl" = type { %"struct.std::_Vector_base<unsigned int, std_allocator<unsigned int>>::_Vector_impl_data" }
%"struct.std::_Vector_base<unsigned int, std_allocator<unsigned int>>::_Vector_impl_data" = type { ptr, ptr, ptr }
%"class.std::unordered_map.51" = type { %"class.std::_Hashtable.52" }
%"class.std::_Hashtable.52" = type { ptr, i64, %"struct.std::__detail::_Hash_node_base", i64, %"struct.std::__detail::_Prime_rehash_policy", ptr }
%"class.lp::stacked_vector.26" = type { %class.svector, %class.svector, %class.vector.27, %class.vector.28, %class.svector }
%class.vector.27 = type { ptr }
%class.map = type { %class.table2map }
%class.table2map = type { %class.core_hashtable }
%class.core_hashtable = type <{ ptr, i32, i32, i32, [4 x i8] }>
%class.indexed_uint_set = type { i32, %class.svector, %class.svector }
%"class.std::unordered_set" = type { %"class.std::_Hashtable.67" }
%"class.std::_Hashtable.67" = type { ptr, i64, %"struct.std::__detail::_Hash_node_base", i64, %"struct.std::__detail::_Prime_rehash_policy", ptr }
%"class.std::unordered_set.85" = type { %"class.std::_Hashtable.86" }
%"class.std::_Hashtable.86" = type { ptr, i64, %"struct.std::__detail::_Hash_node_base", i64, %"struct.std::__detail::_Prime_rehash_policy", ptr }
%"class.std::function.104" = type { %"class.std::_Function_base", ptr }
%"class.std::_Function_base" = type { %"union.std::_Any_data", ptr }
%"union.std::_Any_data" = type { %"union.std::_Nocopy_types" }
%"union.std::_Nocopy_types" = type { { i64, i64 } }
%"class.std::function" = type { %"class.std::_Function_base", ptr }
%"class.std::function.107" = type { %"class.std::_Function_base", ptr }

; Function Attrs: mustprogress nounwind uwtable
define linkonce_odr hidden noundef nonnull align 4 dereferenceable(4) ptr @_ZNK6vectorIjLb0EjEixEj(ptr noundef nonnull align 8 dereferenceable(8) %0, i32 noundef %1) #4 comdat align 2 {
  %3 = alloca ptr, align 8
  %4 = alloca i32, align 4
  store ptr %0, ptr %3, align 8, !tbaa !373
  store i32 %1, ptr %4, align 4, !tbaa !8
  %5 = load ptr, ptr %3, align 8
  %6 = getelementptr inbounds nuw %class.vector.0, ptr %5, i32 0, i32 0
  %7 = load ptr, ptr %6, align 8, !tbaa !375
  %8 = load i32, ptr %4, align 4, !tbaa !8
  %9 = zext i32 %8 to i64
  %10 = getelementptr inbounds nuw i32, ptr %7, i64 %9
  ret ptr %10
}

; Function Attrs: mustprogress nounwind uwtable
define linkonce_odr hidden noundef i32 @_ZNK6vectorIjLb0EjE4sizeEv(ptr noundef nonnull align 8 dereferenceable(8) %0) #4 comdat align 2 {
  %2 = alloca i32, align 4
  %3 = alloca ptr, align 8
  store ptr %0, ptr %3, align 8, !tbaa !373
  %4 = load ptr, ptr %3, align 8
  %5 = getelementptr inbounds nuw %class.vector.0, ptr %4, i32 0, i32 0
  %6 = load ptr, ptr %5, align 8, !tbaa !375
  %7 = icmp eq ptr %6, null
  br i1 %7, label %8, label %9

8:                                                ; preds = %1
  store i32 0, ptr %2, align 4
  br label %14

9:                                                ; preds = %1
  %10 = getelementptr inbounds nuw %class.vector.0, ptr %4, i32 0, i32 0
  %11 = load ptr, ptr %10, align 8, !tbaa !375
  %12 = getelementptr inbounds i32, ptr %11, i64 -1
  %13 = load i32, ptr %12, align 4, !tbaa !8
  store i32 %13, ptr %2, align 4
  br label %14

14:                                               ; preds = %9, %8
  %15 = load i32, ptr %2, align 4
  ret i32 %15
}

; Function Attrs: mustprogress nounwind uwtable
define linkonce_odr hidden noundef zeroext i1 @_ZNK16indexed_uint_set8containsEj(ptr noundef nonnull align 8 dereferenceable(24) %0, i32 noundef %1) #4 comdat align 2 {
  %3 = alloca ptr, align 8
  %4 = alloca i32, align 4
  store ptr %0, ptr %3, align 8, !tbaa !243
  store i32 %1, ptr %4, align 4, !tbaa !8
  %5 = load ptr, ptr %3, align 8
  %6 = load i32, ptr %4, align 4, !tbaa !8
  %7 = getelementptr inbounds nuw %class.indexed_uint_set, ptr %5, i32 0, i32 2
  %8 = call noundef i32 @_ZNK6vectorIjLb0EjE4sizeEv(ptr noundef nonnull align 8 dereferenceable(8) %7)
  %9 = icmp ult i32 %6, %8
  br i1 %9, label %10, label %28

10:                                               ; preds = %2
  %11 = getelementptr inbounds nuw %class.indexed_uint_set, ptr %5, i32 0, i32 2
  %12 = load i32, ptr %4, align 4, !tbaa !8
  %13 = call noundef nonnull align 4 dereferenceable(4) ptr @_ZNK6vectorIjLb0EjEixEj(ptr noundef nonnull align 8 dereferenceable(8) %11, i32 noundef %12)
  %14 = load i32, ptr %13, align 4, !tbaa !8
  %15 = getelementptr inbounds nuw %class.indexed_uint_set, ptr %5, i32 0, i32 0
  %16 = load i32, ptr %15, align 8, !tbaa !244
  %17 = icmp ult i32 %14, %16
  br i1 %17, label %18, label %28

18:                                               ; preds = %10
  %19 = getelementptr inbounds nuw %class.indexed_uint_set, ptr %5, i32 0, i32 1
  %20 = getelementptr inbounds nuw %class.indexed_uint_set, ptr %5, i32 0, i32 2
  %21 = load i32, ptr %4, align 4, !tbaa !8
  %22 = call noundef nonnull align 4 dereferenceable(4) ptr @_ZNK6vectorIjLb0EjEixEj(ptr noundef nonnull align 8 dereferenceable(8) %20, i32 noundef %21)
  %23 = load i32, ptr %22, align 4, !tbaa !8
  %24 = call noundef nonnull align 4 dereferenceable(4) ptr @_ZNK6vectorIjLb0EjEixEj(ptr noundef nonnull align 8 dereferenceable(8) %19, i32 noundef %23)
  %25 = load i32, ptr %24, align 4, !tbaa !8
  %26 = load i32, ptr %4, align 4, !tbaa !8
  %27 = icmp eq i32 %25, %26
  br label %28

28:                                               ; preds = %18, %10, %2
  %29 = phi i1 [ false, %10 ], [ false, %2 ], [ %27, %18 ]
  ret i1 %29
}

; Function Attrs: mustprogress uwtable
define linkonce_odr hidden void @_ZN16indexed_uint_set6insertEj(ptr noundef nonnull align 8 dereferenceable(24) %0, i32 noundef %1) #6 comdat align 2 {
  %3 = alloca ptr, align 8
  %4 = alloca i32, align 4
  store ptr %0, ptr %3, align 8, !tbaa !243
  store i32 %1, ptr %4, align 4, !tbaa !8
  %5 = load ptr, ptr %3, align 8
  %6 = load i32, ptr %4, align 4, !tbaa !8
  %7 = call noundef zeroext i1 @_ZNK16indexed_uint_set8containsEj(ptr noundef nonnull align 8 dereferenceable(24) %5, i32 noundef %6)
  br i1 %7, label %10, label %8

8:                                                ; preds = %2
  %9 = load i32, ptr %4, align 4, !tbaa !8
  call void @_ZN16indexed_uint_set12insert_freshEj(ptr noundef nonnull align 8 dereferenceable(24) %5, i32 noundef %9)
  br label %10

10:                                               ; preds = %8, %2
  ret void
}

; Function Attrs: mustprogress uwtable
define hidden void @_ZN2lp10lar_solver37insert_to_columns_with_changed_boundsEj(ptr noundef nonnull align 8 dereferenceable(2128) %0, i32 noundef %1) #6 align 2 {
  %3 = alloca ptr, align 8
  %4 = alloca i32, align 4
  store ptr %0, ptr %3, align 8, !tbaa !16
  store i32 %1, ptr %4, align 4, !tbaa !8
  %5 = load ptr, ptr %3, align 8
  %6 = getelementptr inbounds nuw %"class.lp::lar_solver", ptr %5, i32 0, i32 13
  %7 = load i32, ptr %4, align 4, !tbaa !8
  call void @_ZN16indexed_uint_set6insertEj(ptr noundef nonnull align 8 dereferenceable(24) %6, i32 noundef %7)
  ret void
}