; Function Attrs: mustprogress uwtable
define hidden void @_ZN2lp10lar_solver37insert_to_columns_with_changed_boundsEj(ptr noundef nonnull align 8 dereferenceable(2128) %0, i32 noundef %1) local_unnamed_addr #5 align 2 {
  %3 = getelementptr inbounds nuw i8, ptr %0, i64 1432
  %4 = getelementptr inbounds nuw i8, ptr %0, i64 1448
  %5 = load ptr, ptr %4, align 8, !tbaa !247
  %6 = icmp eq ptr %5, null
  br i1 %6, label %_ZNK16indexed_uint_set8containsEj.exit.thread.i, label %_ZNK6vectorIjLb0EjE4sizeEv.exit.i.i

_ZNK6vectorIjLb0EjE4sizeEv.exit.i.i:              ; preds = %2
  %7 = getelementptr inbounds i8, ptr %5, i64 -4
  %8 = load i32, ptr %7, align 4, !tbaa !261
  %9 = icmp ult i32 %1, %8
  br i1 %9, label %10, label %_ZNK16indexed_uint_set8containsEj.exit.thread.i

10:                                               ; preds = %_ZNK6vectorIjLb0EjE4sizeEv.exit.i.i
  %11 = zext i32 %1 to i64
  %12 = getelementptr inbounds nuw i32, ptr %5, i64 %11
  %13 = load i32, ptr %12, align 4, !tbaa !261
  %14 = load i32, ptr %3, align 8, !tbaa !225
  %15 = icmp ult i32 %13, %14
  br i1 %15, label %_ZNK16indexed_uint_set8containsEj.exit.i, label %_ZNK16indexed_uint_set8containsEj.exit.thread.i

_ZNK16indexed_uint_set8containsEj.exit.i:         ; preds = %10
  %16 = getelementptr inbounds nuw i8, ptr %0, i64 1440
  %17 = load ptr, ptr %16, align 8, !tbaa !247
  %18 = zext i32 %13 to i64
  %19 = getelementptr inbounds nuw i32, ptr %17, i64 %18
  %20 = load i32, ptr %19, align 4, !tbaa !261
  %21 = icmp eq i32 %20, %1
  br i1 %21, label %_ZN16indexed_uint_set6insertEj.exit, label %_ZNK16indexed_uint_set8containsEj.exit.thread.i

_ZNK16indexed_uint_set8containsEj.exit.thread.i:  ; preds = %_ZNK16indexed_uint_set8containsEj.exit.i, %10, %_ZNK6vectorIjLb0EjE4sizeEv.exit.i.i, %2
  tail call void @_ZN16indexed_uint_set12insert_freshEj(ptr noundef nonnull align 8 dereferenceable(24) %3, i32 noundef %1)
  br label %_ZN16indexed_uint_set6insertEj.exit

_ZN16indexed_uint_set6insertEj.exit:              ; preds = %_ZNK16indexed_uint_set8containsEj.exit.i, %_ZNK16indexed_uint_set8containsEj.exit.thread.i
  ret void
}